MPASM 5.75                      SEMAFORO.ASM   10-10-2017  18:42:52         PAGE  1


LOC  OBJECT CODE     LINE SOURCE TEXT
  VALUE

                      00001     LIST P = 16F84A
                      00002     
                      00003     INCLUDE <P16F84A.INC>
                      00001         LIST
                      00002 
                      00003 ;==========================================================================
                      00004 ; Build date : Jul 02 2017
                      00005 ;  MPASM PIC16F84A processor include
                      00006 ; 
                      00007 ;  (c) Copyright 1999-2017 Microchip Technology, All rights reserved
                      00008 ;==========================================================================
                      00009 
                      00209         LIST
                      00004     
2007   3FF1           00005     __CONFIG _CP_OFF & _WDT_OFF & _PWRTE_ON & _XT_OSC
                      00006     
Warning[207]: Found label after column 1. (T1)
  0000000C            00007     T1 EQU 0X0C
                      00008  
Warning[207]: Found label after column 1. (T2)
  0000000D            00009     T2 EQU 0X0D
                      00010     
                      00011     ORG 0
                      00012     
0000   1683           00013     BSF STATUS, RP0
                      00014     
0001   30F8           00015     MOVLW B'11111000'
                      00016     
Message[302]: Register in operand not in bank 0.  Ensure that bank bits are correct.
0002   0086           00017     MOVWF TRISB
                      00018     
0003   1283           00019     BCF STATUS, RP0
                      00020     
0004                  00021 PROCESO
                      00022     
0004   3001           00023     MOVLW B'00000001' ;Enciende rojo
                      00024     
0005   0086           00025     MOVWF PORTB
                      00026     
0006   2???           00027     CALL RET_ROJO
                      00028     
0007   3003           00029     MOVLW B'00000011' ;Enciende rojo y amarillo
                      00030     
0008   0086           00031     MOVWF PORTB
                      00032     
0009   2???           00033     CALL RET_AMARILLO
                      00034     
000A   3004           00035     MOVLW B'00000100' ;Enciende verde
                      00036     
000B   0086           00037     MOVWF PORTB
                      00038     
000C   2???           00039     CALL RET_VERDE
                      00040     
MPASM 5.75                      SEMAFORO.ASM   10-10-2017  18:42:52         PAGE  2


LOC  OBJECT CODE     LINE SOURCE TEXT
  VALUE

000D   2???           00041     GOTO PROCESO
                      00042     
000E                  00043 RET1
                      00044     
000E   30FF           00045     MOVLW D'255'
                      00046     
000F   008C           00047     MOVWF T1
                      00048     
0010                  00049 DEC1
                      00050     
Message[305]: Using default destination of 1 (file).
0010   0B8C           00051     DECFSZ T1
                      00052     
0011   2???           00053     GOTO RET2
                      00054     
0012   0008           00055     RETURN
                      00056     
0013                  00057 RET2
                      00058     
0013   30FF           00059     MOVLW D'255'
                      00060     
0014   008D           00061     MOVWF T2
                      00062     
0015                  00063 DEC2
                      00064     
Message[305]: Using default destination of 1 (file).
0015   0B8D           00065     DECFSZ T2
                      00066     
0016   2???           00067     GOTO DEC2
                      00068     
0017   2???           00069     GOTO DEC1
                      00070     
0018                  00071 RET_ROJO
                      00072     
0018   2???           00073     CALL RET1
                      00074     
0019   2???           00075     CALL RET1
                      00076     
001A   2???           00077     CALL RET1
                      00078     
001B   2???           00079     CALL RET1
                      00080     
001C   2???           00081     CALL RET1
                      00082     
001D   2???           00083     CALL RET1
                      00084     
001E   2???           00085     CALL RET1
                      00086     
001F   2???           00087     CALL RET1
                      00088     
0020   2???           00089     CALL RET1
                      00090     
0021   2???           00091     CALL RET1
MPASM 5.75                      SEMAFORO.ASM   10-10-2017  18:42:52         PAGE  3


LOC  OBJECT CODE     LINE SOURCE TEXT
  VALUE

                      00092     
0022   0008           00093     RETURN
                      00094     
0023                  00095 RET_AMARILLO
                      00096     
0023   2???           00097     CALL RET1
                      00098     
0024   2???           00099     CALL RET1
                      00100     
0025   2???           00101     CALL RET1
                      00102     
0026   2???           00103     CALL RET1
                      00104     
0027   2???           00105     CALL RET1
                      00106     
0028   0008           00107     RETURN
                      00108     
0029                  00109 RET_VERDE
                      00110     
0029   2???           00111     CALL RET1
                      00112     
002A   2???           00113     CALL RET1
                      00114     
002B   2???           00115     CALL RET1
                      00116     
002C   2???           00117     CALL RET1
                      00118     
002D   2???           00119     CALL RET1
                      00120     
002E   2???           00121     CALL RET1
                      00122     
002F   2???           00123     CALL RET1
                      00124     
0030   2???           00125     CALL RET1
                      00126     
0031   2???           00127     CALL RET1
                      00128     
0032   2???           00129     CALL RET1
                      00130     
0033   2???           00131     CALL RET1
                      00132     
0034   2???           00133     CALL RET1
                      00134     
0035   2???           00135     CALL RET1
                      00136     
0036   2???           00137     CALL RET1
                      00138     
0037   2???           00139     CALL RET1
                      00140     
0038   2???           00141     CALL RET1
                      00142     
0039   2???           00143     CALL RET1
                      00144     
MPASM 5.75                      SEMAFORO.ASM   10-10-2017  18:42:52         PAGE  4


LOC  OBJECT CODE     LINE SOURCE TEXT
  VALUE

003A   2???           00145     CALL RET1
                      00146     
003B   2???           00147     CALL RET1
                      00148     
003C   2???           00149     CALL RET1
                      00150     
003D   0008           00151     RETURN
                      00152     
Warning[205]: Found directive in column 1. (END)
3FF1                  00153 END
MPASM 5.75                      SEMAFORO.ASM   10-10-2017  18:42:52         PAGE  5


SYMBOL TABLE
  LABEL                             VALUE 

C                                 00000000
DC                                00000001
DEC1                              00000010
DEC2                              00000015
EEADR                             00000009
EECON1                            00000088
EECON2                            00000089
EEDATA                            00000008
EEIE                              00000006
EEIF                              00000004
F                                 00000001
FSR                               00000004
GIE                               00000007
INDF                              00000000
INTCON                            0000000B
INTE                              00000004
INTEDG                            00000006
INTF                              00000001
IRP                               00000007
NOT_PD                            00000003
NOT_RBPU                          00000007
NOT_TO                            00000004
OPTION_REG                        00000081
PCL                               00000002
PCLATH                            0000000A
PORTA                             00000005
PORTB                             00000006
PROCESO                           00000004
PS0                               00000000
PS1                               00000001
PS2                               00000002
PSA                               00000003
RA0                               00000000
RA1                               00000001
RA2                               00000002
RA3                               00000003
RA4                               00000004
RB0                               00000000
RB1                               00000001
RB2                               00000002
RB3                               00000003
RB4                               00000004
RB5                               00000005
RB6                               00000006
RB7                               00000007
RBIE                              00000003
RBIF                              00000000
RD                                00000000
RET1                              0000000E
RET2                              00000013
RET_AMARILLO                      00000023
RET_ROJO                          00000018
RET_VERDE                         00000029
MPASM 5.75                      SEMAFORO.ASM   10-10-2017  18:42:52         PAGE  6


SYMBOL TABLE
  LABEL                             VALUE 

RP0                               00000005
RP1                               00000006
STATUS                            00000003
T0CS                              00000005
T0IE                              00000005
T0IF                              00000002
T0SE                              00000004
T1                                0000000C
T2                                0000000D
TMR0                              00000001
TMR0IE                            00000005
TMR0IF                            00000002
TRISA                             00000085
TRISA0                            00000000
TRISA1                            00000001
TRISA2                            00000002
TRISA3                            00000003
TRISA4                            00000004
TRISB                             00000086
TRISB0                            00000000
TRISB1                            00000001
TRISB2                            00000002
TRISB3                            00000003
TRISB4                            00000004
TRISB5                            00000005
TRISB6                            00000006
TRISB7                            00000007
W                                 00000000
WR                                00000001
WREN                              00000002
WRERR                             00000003
Z                                 00000002
_CONFIG                           00002007
_CP_OFF                           00003FFF
_CP_ON                            0000000F
_DEVID1                           00002006
_FOSC_EXTRC                       00003FFF
_FOSC_HS                          00003FFE
_FOSC_LP                          00003FFC
_FOSC_XT                          00003FFD
_HS_OSC                           00003FFE
_IDLOC0                           00002000
_IDLOC1                           00002001
_IDLOC2                           00002002
_IDLOC3                           00002003
_LP_OSC                           00003FFC
_PWRTE_OFF                        00003FFF
_PWRTE_ON                         00003FF7
_RC_OSC                           00003FFF
_WDTE_OFF                         00003FFB
_WDTE_ON                          00003FFF
_WDT_OFF                          00003FFB
_WDT_ON                           00003FFF
MPASM 5.75                      SEMAFORO.ASM   10-10-2017  18:42:52         PAGE  7


SYMBOL TABLE
  LABEL                             VALUE 

_XT_OSC                           00003FFD
__16F84A                          00000001

Errors   :     0
Warnings :     3 reported,     0 suppressed
Messages :     3 reported,     0 suppressed

